; Function Attrs: mustprogress uwtable
define internal noundef i32 @_ZL23credentials_pointer_cmpPvS_(ptr noundef %0, ptr noundef %1) #9 personality ptr @__gxx_personality_v0 {
  %3 = alloca %"class.absl::lts_20240722::log_internal::LogMessageFatal", align 8
  %.not.i.i = icmp eq ptr %1, null
  br i1 %.not.i.i, label %17, label %4, !prof !8

4:                                                ; preds = %2
  %5 = load ptr, ptr %0, align 8, !tbaa !9
  %6 = getelementptr inbounds nuw i8, ptr %5, i64 40
  %7 = load ptr, ptr %6, align 8
  %8 = tail call { i64, ptr } %7(ptr noundef nonnull align 8 dereferenceable(16) %0)
  %9 = extractvalue { i64, ptr } %8, 1
  %10 = load ptr, ptr %1, align 8, !tbaa !9
  %11 = getelementptr inbounds nuw i8, ptr %10, i64 40
  %12 = load ptr, ptr %11, align 8
  %13 = tail call { i64, ptr } %12(ptr noundef nonnull align 8 dereferenceable(16) %1)
  %14 = extractvalue { i64, ptr } %13, 1
  %15 = icmp ult ptr %9, %14
  %16 = icmp ult ptr %14, %9
  %..i.i.i = zext i1 %16 to i32
  %.0.i.i.i = select i1 %15, i32 -1, i32 %..i.i.i
  %.not7.i = icmp eq i32 %.0.i.i.i, 0
  br i1 %.not7.i, label %22, label %_ZNK24grpc_channel_credentials3cmpEPKS_.exit

17:                                               ; preds = %2
  %18 = tail call noundef nonnull ptr @_ZN4absl12lts_2024072212log_internal17MakeCheckOpStringIPKvS4_EEPNSt7__cxx1112basic_stringIcSt11char_traitsIcESaIcEEET_T0_PKc(ptr noundef null, ptr noundef null, ptr noundef nonnull @.str.15)
  call void @llvm.lifetime.start.p0(i64 16, ptr nonnull %3) #29
  %19 = load ptr, ptr %18, align 8, !tbaa !78
  %20 = getelementptr inbounds nuw i8, ptr %18, i64 8
  %21 = load i64, ptr %20, align 8, !tbaa !81
  call void @_ZN4absl12lts_2024072212log_internal15LogMessageFatalC1EPKciSt17basic_string_viewIcSt11char_traitsIcEE(ptr noundef nonnull align 8 dereferenceable(16) %3, ptr noundef nonnull @.str.16, i32 noundef 139, i64 %21, ptr %19) #30
  call void @_ZN4absl12lts_2024072212log_internal15LogMessageFatalD1Ev(ptr noundef nonnull align 8 dereferenceable(16) %3) #32
  unreachable

22:                                               ; preds = %4
  %23 = load ptr, ptr %0, align 8, !tbaa !9
  %24 = getelementptr inbounds nuw i8, ptr %23, i64 48
  %25 = load ptr, ptr %24, align 8
  %26 = tail call noundef i32 %25(ptr noundef nonnull align 8 dereferenceable(16) %0, ptr noundef nonnull %1)
  br label %_ZNK24grpc_channel_credentials3cmpEPKS_.exit

_ZNK24grpc_channel_credentials3cmpEPKS_.exit:     ; preds = %4, %22
  %.0.i = phi i32 [ %26, %22 ], [ %.0.i.i.i, %4 ]
  ret i32 %.0.i
}